; Function Attrs: mustprogress nounwind uwtable
define internal fastcc void @"_ZSt21__inplace_stable_sortIN9__gnu_cxx17__normal_iteratorIPN9Stockfish6Search8RootMoveESt6vectorIS4_SaIS4_EEEENS0_5__ops15_Iter_comp_iterIZNS2_10Tablebases15rank_root_movesERKNS2_10OptionsMapERNS2_8PositionERS8_E3$_0EEEvT_SL_T0_"(ptr %0, ptr %1) unnamed_addr #3 {
  %3 = ptrtoint ptr %1 to i64
  %4 = ptrtoint ptr %0 to i64
  %5 = sub i64 %3, %4
  %6 = icmp slt i64 %5, 840
  br i1 %6, label %common.ret, label %7

common.ret:                                       ; preds = %2
  tail call fastcc void @"_ZSt16__insertion_sortIN9__gnu_cxx17__normal_iteratorIPN9Stockfish6Search8RootMoveESt6vectorIS4_SaIS4_EEEENS0_5__ops15_Iter_comp_iterIZNS2_10Tablebases15rank_root_movesERKNS2_10OptionsMapERNS2_8PositionERS8_E3$_0EEEvT_SL_T0_"(ptr %0, ptr %1)
  br label %common.ret25

common.ret25:                                     ; preds = %7, %common.ret
  ret void

7:                                                ; preds = %2
  %8 = udiv exact i64 %5, 56
  %9 = lshr i64 %8, 1
  %10 = getelementptr inbounds %"struct.Stockfish::Search::RootMove", ptr %0, i64 %9
  tail call fastcc void @"_ZSt21__inplace_stable_sortIN9__gnu_cxx17__normal_iteratorIPN9Stockfish6Search8RootMoveESt6vectorIS4_SaIS4_EEEENS0_5__ops15_Iter_comp_iterIZNS2_10Tablebases15rank_root_movesERKNS2_10OptionsMapERNS2_8PositionERS8_E3$_0EEEvT_SL_T0_"(ptr %0, ptr %10)
  tail call fastcc void @"_ZSt21__inplace_stable_sortIN9__gnu_cxx17__normal_iteratorIPN9Stockfish6Search8RootMoveESt6vectorIS4_SaIS4_EEEENS0_5__ops15_Iter_comp_iterIZNS2_10Tablebases15rank_root_movesERKNS2_10OptionsMapERNS2_8PositionERS8_E3$_0EEEvT_SL_T0_"(ptr %10, ptr %1)
  %11 = ptrtoint ptr %10 to i64
  %12 = sub i64 %3, %11
  %13 = sdiv exact i64 %12, 56
  tail call fastcc void @"_ZSt22__merge_without_bufferIN9__gnu_cxx17__normal_iteratorIPN9Stockfish6Search8RootMoveESt6vectorIS4_SaIS4_EEEElNS0_5__ops15_Iter_comp_iterIZNS2_10Tablebases15rank_root_movesERKNS2_10OptionsMapERNS2_8PositionERS8_E3$_0EEEvT_SL_SL_T0_SM_T1_"(ptr %0, ptr %10, ptr %1, i64 noundef %9, i64 noundef %13)
  br label %common.ret25
}